; Function Attrs: mustprogress uwtable
define dso_local noundef zeroext i1 @_ZN3net17AeadBaseDecrypter6SetKeyEN4base16BasicStringPieceINSt7__cxx1112basic_stringIcSt11char_traitsIcESaIcEEEEE(ptr noundef nonnull align 8 dereferenceable(96) %this, ptr %key.coerce0, i64 %key.coerce1) unnamed_addr #0 align 2 personality ptr @__gxx_personality_v0 {
if.end:
  %key = alloca %"class.base::BasicStringPiece", align 8
  store ptr %key.coerce0, ptr %key, align 8
  %0 = getelementptr inbounds i8, ptr %key, i64 8
  store i64 %key.coerce1, ptr %0, align 8
  %call4 = call noundef i64 @_ZNK4base16BasicStringPieceINSt7__cxx1112basic_stringIcSt11char_traitsIcESaIcEEEE4sizeEv(ptr noundef nonnull align 8 dereferenceable(16) %key)
  %key_size_ = getelementptr inbounds i8, ptr %this, i64 16
  %1 = load i64, ptr %key_size_, align 8
  %cmp.not = icmp eq i64 %call4, %1
  br i1 %cmp.not, label %if.end6, label %return

if.end6:                                          ; preds = %if.end
  %key_ = getelementptr inbounds i8, ptr %this, i64 41
  %call7 = call noundef ptr @_ZNK4base16BasicStringPieceINSt7__cxx1112basic_stringIcSt11char_traitsIcESaIcEEEE4dataEv(ptr noundef nonnull align 8 dereferenceable(16) %key)
  %call8 = call noundef i64 @_ZNK4base16BasicStringPieceINSt7__cxx1112basic_stringIcSt11char_traitsIcESaIcEEEE4sizeEv(ptr noundef nonnull align 8 dereferenceable(16) %key)
  call void @llvm.memcpy.p0.p0.i64(ptr nonnull align 1 %key_, ptr align 1 %call7, i64 %call8, i1 false)
  %ctx_ = getelementptr inbounds i8, ptr %this, i64 80
  %call9 = call noundef ptr @_ZN3net16ScopedEVPAEADCtx3getEv(ptr noundef nonnull align 8 dereferenceable(16) %ctx_)
  call void @EVP_AEAD_CTX_cleanup(ptr noundef %call9)
  %call11 = call noundef ptr @_ZN3net16ScopedEVPAEADCtx3getEv(ptr noundef nonnull align 8 dereferenceable(16) %ctx_)
  %aead_alg_ = getelementptr inbounds i8, ptr %this, i64 8
  %2 = load ptr, ptr %aead_alg_, align 8
  %3 = load i64, ptr %key_size_, align 8
  %auth_tag_size_ = getelementptr inbounds i8, ptr %this, i64 24
  %4 = load i64, ptr %auth_tag_size_, align 8
  %call15 = call i32 @EVP_AEAD_CTX_init(ptr noundef %call11, ptr noundef %2, ptr noundef nonnull %key_, i64 noundef %3, i64 noundef %4, ptr noundef null)
  %tobool.not = icmp eq i32 %call15, 0
  br i1 %tobool.not, label %while.cond.i.i, label %return

while.cond.i.i:                                   ; preds = %if.end6, %while.cond.i.i
  %call.i.i = call i32 @ERR_get_error()
  %tobool.not.i.i = icmp eq i32 %call.i.i, 0
  br i1 %tobool.not.i.i, label %return, label %while.cond.i.i, !llvm.loop !5

return:                                           ; preds = %while.cond.i.i, %if.end6, %if.end
  %retval.0 = phi i1 [ false, %if.end ], [ true, %if.end6 ], [ false, %while.cond.i.i ]
  ret i1 %retval.0
}